target datalayout = "e-m:e-p270:32:32-p271:32:32-p272:64:64-i64:64-i128:128-f80:128-n8:16:32:64-S128"
target triple = "x86_64-pc-linux-gnu"

%struct.point_t = type { float, float }
%struct.dt_lut_t = type { ptr, ptr, ptr, ptr, ptr, ptr, ptr, ptr, ptr, ptr, ptr, ptr, ptr, ptr, ptr, ptr, ptr, %struct.image_t, %struct.image_t, ptr, ptr, ptr, ptr, ptr }
%struct.image_t = type { ptr, ptr, ptr, i32, i32, ptr, float, i32, i32, float, [4 x %struct.point_t], ptr, i32 }
%struct.chart_t = type { ptr, ptr, ptr, ptr, float, float, float, float }
%struct._GtkTreeIter = type { i32, ptr, ptr, ptr }
%struct._GList = type { ptr, ptr, ptr }

; Function Attrs: nounwind uwtable
define internal void @init_table(ptr noundef %0) #0 {
  %2 = alloca ptr, align 8
  %3 = alloca %struct._GtkTreeIter, align 8
  %4 = alloca i32, align 4
  %5 = alloca ptr, align 8
  %6 = alloca ptr, align 8
  store ptr %0, ptr %2, align 8, !tbaa !14
  call void @llvm.lifetime.start.p0(i64 32, ptr %3) #15
  %7 = load ptr, ptr %2, align 8, !tbaa !14
  %8 = getelementptr inbounds nuw %struct.dt_lut_t, ptr %7, i32 0, i32 16
  %9 = load ptr, ptr %8, align 8, !tbaa !30
  %10 = call i64 @gtk_list_store_get_type() #18
  %11 = call ptr @g_type_check_instance_cast(ptr noundef %9, i64 noundef %10)
  call void @gtk_list_store_clear(ptr noundef %11)
  %12 = load ptr, ptr %2, align 8, !tbaa !14
  %13 = getelementptr inbounds nuw %struct.dt_lut_t, ptr %12, i32 0, i32 20
  %14 = load ptr, ptr %13, align 8, !tbaa !31
  %15 = icmp ne ptr %14, null
  br i1 %15, label %17, label %16

16:                                               ; preds = %1
  store i32 1, ptr %4, align 4
  br label %58

17:                                               ; preds = %1
  call void @llvm.lifetime.start.p0(i64 8, ptr %5) #15
  %18 = load ptr, ptr %2, align 8, !tbaa !14
  %19 = getelementptr inbounds nuw %struct.dt_lut_t, ptr %18, i32 0, i32 20
  %20 = load ptr, ptr %19, align 8, !tbaa !31
  %21 = getelementptr inbounds nuw %struct.chart_t, ptr %20, i32 0, i32 2
  %22 = load ptr, ptr %21, align 8, !tbaa !124
  %23 = call ptr @g_hash_table_get_keys(ptr noundef %22)
  store ptr %23, ptr %5, align 8, !tbaa !146
  %24 = load ptr, ptr %5, align 8, !tbaa !146
  %25 = call ptr @g_list_sort(ptr noundef %24, ptr noundef @g_strcmp0)
  store ptr %25, ptr %5, align 8, !tbaa !146
  call void @llvm.lifetime.start.p0(i64 8, ptr %6) #15
  %26 = load ptr, ptr %5, align 8, !tbaa !146
  store ptr %26, ptr %6, align 8, !tbaa !146
  br label %27

27:                                               ; preds = %53, %17
  %28 = load ptr, ptr %6, align 8, !tbaa !146
  %29 = icmp ne ptr %28, null
  br i1 %29, label %31, label %30

30:                                               ; preds = %27
  store i32 2, ptr %4, align 4
  call void @llvm.lifetime.end.p0(i64 8, ptr %6) #15
  br label %55

31:                                               ; preds = %27
  %32 = load ptr, ptr %2, align 8, !tbaa !14
  %33 = getelementptr inbounds nuw %struct.dt_lut_t, ptr %32, i32 0, i32 16
  %34 = load ptr, ptr %33, align 8, !tbaa !30
  %35 = call i64 @gtk_list_store_get_type() #18
  %36 = call ptr @g_type_check_instance_cast(ptr noundef %34, i64 noundef %35)
  call void @gtk_list_store_append(ptr noundef %36, ptr noundef %3)
  %37 = load ptr, ptr %2, align 8, !tbaa !14
  %38 = getelementptr inbounds nuw %struct.dt_lut_t, ptr %37, i32 0, i32 16
  %39 = load ptr, ptr %38, align 8, !tbaa !30
  %40 = call i64 @gtk_list_store_get_type() #18
  %41 = call ptr @g_type_check_instance_cast(ptr noundef %39, i64 noundef %40)
  %42 = load ptr, ptr %6, align 8, !tbaa !146
  %43 = getelementptr inbounds nuw %struct._GList, ptr %42, i32 0, i32 0
  %44 = load ptr, ptr %43, align 8, !tbaa !147
  call void (ptr, ptr, ...) @gtk_list_store_set(ptr noundef %41, ptr noundef %3, i32 noundef 0, ptr noundef %44, i32 noundef -1)
  br label %45

45:                                               ; preds = %31
  %46 = load ptr, ptr %6, align 8, !tbaa !146
  %47 = icmp ne ptr %46, null
  br i1 %47, label %48, label %52

48:                                               ; preds = %45
  %49 = load ptr, ptr %6, align 8, !tbaa !146
  %50 = getelementptr inbounds nuw %struct._GList, ptr %49, i32 0, i32 1
  %51 = load ptr, ptr %50, align 8, !tbaa !149
  br label %53

52:                                               ; preds = %45
  br label %53

53:                                               ; preds = %52, %48
  %54 = phi ptr [ %51, %48 ], [ null, %52 ]
  store ptr %54, ptr %6, align 8, !tbaa !146
  br label %27

55:                                               ; preds = %30
  %56 = load ptr, ptr %5, align 8, !tbaa !146
  call void @g_list_free(ptr noundef %56)
  %57 = load ptr, ptr %2, align 8, !tbaa !14
  call void @update_table(ptr noundef %57)
  call void @llvm.lifetime.end.p0(i64 8, ptr %5) #15
  store i32 0, ptr %4, align 4
  br label %58

58:                                               ; preds = %55, %16
  call void @llvm.lifetime.end.p0(i64 32, ptr %3) #15
  %59 = load i32, ptr %4, align 4
  switch i32 %59, label %61 [
    i32 0, label %60
    i32 1, label %60
  ]

60:                                               ; preds = %58, %58
  ret void

61:                                               ; preds = %58
  unreachable
}