; Function Attrs: nounwind uwtable
define internal fastcc void @init_table(ptr noundef readonly captures(none) %0) unnamed_addr #0 {
  %2 = alloca %struct._GtkTreeIter, align 8
  call void @llvm.lifetime.start.p0(i64 32, ptr nonnull %2) #24
  %3 = getelementptr inbounds nuw i8, ptr %0, i64 128
  %4 = load ptr, ptr %3, align 8, !tbaa !56
  %5 = tail call i64 @gtk_list_store_get_type() #28
  %6 = tail call ptr @g_type_check_instance_cast(ptr noundef %4, i64 noundef %5) #24
  tail call void @gtk_list_store_clear(ptr noundef %6) #24
  %7 = getelementptr inbounds nuw i8, ptr %0, i64 352
  %8 = load ptr, ptr %7, align 8, !tbaa !64
  %.not = icmp eq ptr %8, null
  br i1 %.not, label %21, label %9

9:                                                ; preds = %1
  %10 = getelementptr inbounds nuw i8, ptr %8, i64 16
  %11 = load ptr, ptr %10, align 8, !tbaa !75
  %12 = tail call ptr @g_hash_table_get_keys(ptr noundef %11) #24
  %13 = tail call ptr @g_list_sort(ptr noundef %12, ptr noundef nonnull @g_strcmp0) #24
  %.not1415 = icmp eq ptr %13, null
  br i1 %.not1415, label %._crit_edge, label %.lr.ph

._crit_edge:                                      ; preds = %.lr.ph, %9
  call void @g_list_free(ptr noundef %13) #24
  call fastcc void @update_table(ptr noundef nonnull %0)
  br label %21

.lr.ph:                                           ; preds = %9, %.lr.ph
  %.016 = phi ptr [ %20, %.lr.ph ], [ %13, %9 ]
  %14 = load ptr, ptr %3, align 8, !tbaa !56
  %15 = call ptr @g_type_check_instance_cast(ptr noundef %14, i64 noundef %5) #24
  call void @gtk_list_store_append(ptr noundef %15, ptr noundef nonnull %2) #24
  %16 = load ptr, ptr %3, align 8, !tbaa !56
  %17 = call ptr @g_type_check_instance_cast(ptr noundef %16, i64 noundef %5) #24
  %18 = load ptr, ptr %.016, align 8, !tbaa !111
  call void (ptr, ptr, ...) @gtk_list_store_set(ptr noundef %17, ptr noundef nonnull %2, i32 noundef 0, ptr noundef %18, i32 noundef -1) #24
  %19 = getelementptr inbounds nuw i8, ptr %.016, i64 8
  %20 = load ptr, ptr %19, align 8, !tbaa !113
  %.not14 = icmp eq ptr %20, null
  br i1 %.not14, label %._crit_edge, label %.lr.ph

21:                                               ; preds = %1, %._crit_edge
  call void @llvm.lifetime.end.p0(i64 32, ptr nonnull %2) #24
  ret void
}